target datalayout = "e-m:e-p270:32:32-p271:32:32-p272:64:64-i64:64-i128:128-f80:128-n8:16:32:64-S128"
target triple = "x86_64-pc-linux-gnu"

%struct.ImGui_ImplGlfw_Data = type { ptr, i32, double, ptr, [9 x ptr], %struct.ImVec2, i8, i8, ptr, ptr, ptr, ptr, ptr, ptr, ptr, ptr }
%struct.ImVec2 = type { float, float }
%struct.ImGuiIO = type { i32, i32, %struct.ImVec2, float, float, ptr, ptr, ptr, ptr, float, i8, ptr, %struct.ImVec2, i8, i8, i8, i8, i8, i8, i8, i8, i8, i8, float, float, float, float, float, float, i8, i8, i8, i8, i8, i8, i8, i8, i8, i8, ptr, ptr, ptr, ptr, ptr, i8, i8, i8, i8, i8, i8, i8, float, i32, i32, i32, i32, %struct.ImVec2, ptr, %struct.ImVec2, [5 x i8], float, float, i32, i8, i8, i8, i8, i32, [154 x %struct.ImGuiKeyData], i8, %struct.ImVec2, [5 x %struct.ImVec2], [5 x double], [5 x i8], [5 x i8], [5 x i16], [5 x i16], [5 x i8], [5 x i8], [5 x i8], i8, i8, [5 x float], [5 x float], [5 x float], float, i8, i8, i8, i8, i16, %struct.ImVector }
%struct.ImGuiKeyData = type { i8, float, float, float }
%struct.ImVector = type { i32, i32, ptr }

; Function Attrs: mustprogress uwtable
define internal noundef ptr @_ZL29ImGui_ImplGlfw_GetBackendDatav() #1 {
  %1 = call noundef ptr @_ZN5ImGui17GetCurrentContextEv()
  %2 = icmp ne ptr %1, null
  br i1 %2, label %3, label %7

3:                                                ; preds = %0
  %4 = call noundef nonnull align 8 dereferenceable(2944) ptr @_ZN5ImGui5GetIOEv()
  %5 = getelementptr inbounds nuw %struct.ImGuiIO, ptr %4, i32 0, i32 41
  %6 = load ptr, ptr %5, align 8, !tbaa !22
  br label %8

7:                                                ; preds = %0
  br label %8

8:                                                ; preds = %7, %3
  %9 = phi ptr [ %6, %3 ], [ null, %7 ]
  ret ptr %9
}

; Function Attrs: mustprogress uwtable
define dso_local void @_Z31ImGui_ImplGlfw_RestoreCallbacksP10GLFWwindow(ptr noundef %0) #1 {
  %2 = alloca ptr, align 8
  %3 = alloca ptr, align 8
  store ptr %0, ptr %2, align 8, !tbaa !8
  call void @llvm.lifetime.start.p0(i64 8, ptr %3) #9
  %4 = call noundef ptr @_ZL29ImGui_ImplGlfw_GetBackendDatav()
  store ptr %4, ptr %3, align 8, !tbaa !11
  %5 = load ptr, ptr %2, align 8, !tbaa !8
  %6 = load ptr, ptr %3, align 8, !tbaa !11
  %7 = getelementptr inbounds nuw %struct.ImGui_ImplGlfw_Data, ptr %6, i32 0, i32 8
  %8 = load ptr, ptr %7, align 8, !tbaa !44
  %9 = call ptr @glfwSetWindowFocusCallback(ptr noundef %5, ptr noundef %8)
  %10 = load ptr, ptr %2, align 8, !tbaa !8
  %11 = load ptr, ptr %3, align 8, !tbaa !11
  %12 = getelementptr inbounds nuw %struct.ImGui_ImplGlfw_Data, ptr %11, i32 0, i32 10
  %13 = load ptr, ptr %12, align 8, !tbaa !52
  %14 = call ptr @glfwSetCursorEnterCallback(ptr noundef %10, ptr noundef %13)
  %15 = load ptr, ptr %2, align 8, !tbaa !8
  %16 = load ptr, ptr %3, align 8, !tbaa !11
  %17 = getelementptr inbounds nuw %struct.ImGui_ImplGlfw_Data, ptr %16, i32 0, i32 9
  %18 = load ptr, ptr %17, align 8, !tbaa !45
  %19 = call ptr @glfwSetCursorPosCallback(ptr noundef %15, ptr noundef %18)
  %20 = load ptr, ptr %2, align 8, !tbaa !8
  %21 = load ptr, ptr %3, align 8, !tbaa !11
  %22 = getelementptr inbounds nuw %struct.ImGui_ImplGlfw_Data, ptr %21, i32 0, i32 11
  %23 = load ptr, ptr %22, align 8, !tbaa !13
  %24 = call ptr @glfwSetMouseButtonCallback(ptr noundef %20, ptr noundef %23)
  %25 = load ptr, ptr %2, align 8, !tbaa !8
  %26 = load ptr, ptr %3, align 8, !tbaa !11
  %27 = getelementptr inbounds nuw %struct.ImGui_ImplGlfw_Data, ptr %26, i32 0, i32 12
  %28 = load ptr, ptr %27, align 8, !tbaa !37
  %29 = call ptr @glfwSetScrollCallback(ptr noundef %25, ptr noundef %28)
  %30 = load ptr, ptr %2, align 8, !tbaa !8
  %31 = load ptr, ptr %3, align 8, !tbaa !11
  %32 = getelementptr inbounds nuw %struct.ImGui_ImplGlfw_Data, ptr %31, i32 0, i32 13
  %33 = load ptr, ptr %32, align 8, !tbaa !38
  %34 = call ptr @glfwSetKeyCallback(ptr noundef %30, ptr noundef %33)
  %35 = load ptr, ptr %2, align 8, !tbaa !8
  %36 = load ptr, ptr %3, align 8, !tbaa !11
  %37 = getelementptr inbounds nuw %struct.ImGui_ImplGlfw_Data, ptr %36, i32 0, i32 14
  %38 = load ptr, ptr %37, align 8, !tbaa !56
  %39 = call ptr @glfwSetCharCallback(ptr noundef %35, ptr noundef %38)
  %40 = load ptr, ptr %3, align 8, !tbaa !11
  %41 = getelementptr inbounds nuw %struct.ImGui_ImplGlfw_Data, ptr %40, i32 0, i32 15
  %42 = load ptr, ptr %41, align 8, !tbaa !59
  %43 = call ptr @glfwSetMonitorCallback(ptr noundef %42)
  %44 = load ptr, ptr %3, align 8, !tbaa !11
  %45 = getelementptr inbounds nuw %struct.ImGui_ImplGlfw_Data, ptr %44, i32 0, i32 6
  store i8 0, ptr %45, align 8, !tbaa !60
  %46 = load ptr, ptr %3, align 8, !tbaa !11
  %47 = getelementptr inbounds nuw %struct.ImGui_ImplGlfw_Data, ptr %46, i32 0, i32 8
  store ptr null, ptr %47, align 8, !tbaa !44
  %48 = load ptr, ptr %3, align 8, !tbaa !11
  %49 = getelementptr inbounds nuw %struct.ImGui_ImplGlfw_Data, ptr %48, i32 0, i32 10
  store ptr null, ptr %49, align 8, !tbaa !52
  %50 = load ptr, ptr %3, align 8, !tbaa !11
  %51 = getelementptr inbounds nuw %struct.ImGui_ImplGlfw_Data, ptr %50, i32 0, i32 9
  store ptr null, ptr %51, align 8, !tbaa !45
  %52 = load ptr, ptr %3, align 8, !tbaa !11
  %53 = getelementptr inbounds nuw %struct.ImGui_ImplGlfw_Data, ptr %52, i32 0, i32 11
  store ptr null, ptr %53, align 8, !tbaa !13
  %54 = load ptr, ptr %3, align 8, !tbaa !11
  %55 = getelementptr inbounds nuw %struct.ImGui_ImplGlfw_Data, ptr %54, i32 0, i32 12
  store ptr null, ptr %55, align 8, !tbaa !37
  %56 = load ptr, ptr %3, align 8, !tbaa !11
  %57 = getelementptr inbounds nuw %struct.ImGui_ImplGlfw_Data, ptr %56, i32 0, i32 13
  store ptr null, ptr %57, align 8, !tbaa !38
  %58 = load ptr, ptr %3, align 8, !tbaa !11
  %59 = getelementptr inbounds nuw %struct.ImGui_ImplGlfw_Data, ptr %58, i32 0, i32 14
  store ptr null, ptr %59, align 8, !tbaa !56
  %60 = load ptr, ptr %3, align 8, !tbaa !11
  %61 = getelementptr inbounds nuw %struct.ImGui_ImplGlfw_Data, ptr %60, i32 0, i32 15
  store ptr null, ptr %61, align 8, !tbaa !59
  call void @llvm.lifetime.end.p0(i64 8, ptr %3) #9
  ret void
}