; Function Attrs: mustprogress uwtable
define dso_local void @_Z31ImGui_ImplGlfw_RestoreCallbacksP10GLFWwindow(ptr noundef %0) local_unnamed_addr #1 {
_ZL29ImGui_ImplGlfw_GetBackendDatav.exit:
  %1 = tail call noundef ptr @_ZN5ImGui17GetCurrentContextEv()
  %.not.i = icmp ne ptr %1, null
  tail call void @llvm.assume(i1 %.not.i)
  %2 = tail call noundef nonnull align 8 dereferenceable(2944) ptr @_ZN5ImGui5GetIOEv()
  %3 = getelementptr inbounds nuw i8, ptr %2, i64 144
  %4 = load ptr, ptr %3, align 8, !tbaa !4
  %5 = getelementptr inbounds nuw i8, ptr %4, i64 120
  %6 = load ptr, ptr %5, align 8, !tbaa !34
  %7 = tail call ptr @glfwSetWindowFocusCallback(ptr noundef %0, ptr noundef %6)
  %8 = getelementptr inbounds nuw i8, ptr %4, i64 136
  %9 = load ptr, ptr %8, align 8, !tbaa !36
  %10 = tail call ptr @glfwSetCursorEnterCallback(ptr noundef %0, ptr noundef %9)
  %11 = getelementptr inbounds nuw i8, ptr %4, i64 128
  %12 = load ptr, ptr %11, align 8, !tbaa !35
  %13 = tail call ptr @glfwSetCursorPosCallback(ptr noundef %0, ptr noundef %12)
  %14 = getelementptr inbounds nuw i8, ptr %4, i64 144
  %15 = load ptr, ptr %14, align 8, !tbaa !21
  %16 = tail call ptr @glfwSetMouseButtonCallback(ptr noundef %0, ptr noundef %15)
  %17 = getelementptr inbounds nuw i8, ptr %4, i64 152
  %18 = load ptr, ptr %17, align 8, !tbaa !30
  %19 = tail call ptr @glfwSetScrollCallback(ptr noundef %0, ptr noundef %18)
  %20 = getelementptr inbounds nuw i8, ptr %4, i64 160
  %21 = load ptr, ptr %20, align 8, !tbaa !31
  %22 = tail call ptr @glfwSetKeyCallback(ptr noundef %0, ptr noundef %21)
  %23 = getelementptr inbounds nuw i8, ptr %4, i64 168
  %24 = load ptr, ptr %23, align 8, !tbaa !40
  %25 = tail call ptr @glfwSetCharCallback(ptr noundef %0, ptr noundef %24)
  %26 = getelementptr inbounds nuw i8, ptr %4, i64 176
  %27 = load ptr, ptr %26, align 8, !tbaa !41
  %28 = tail call ptr @glfwSetMonitorCallback(ptr noundef %27)
  %29 = getelementptr inbounds nuw i8, ptr %4, i64 112
  store i8 0, ptr %29, align 8, !tbaa !42
  tail call void @llvm.memset.p0.i64(ptr noundef nonnull align 8 dereferenceable(64) %5, i8 0, i64 64, i1 false)
  ret void
}